target datalayout = "e-m:e-p270:32:32-p271:32:32-p272:64:64-i64:64-i128:128-f80:128-n8:16:32:64-S128"
target triple = "x86_64-pc-linux-gnu"

%"class.std::__shared_count" = type { ptr }
%"class.std::shared_ptr.17" = type { %"class.std::__shared_ptr.18" }
%"class.std::__shared_ptr.18" = type { ptr, %"class.std::__shared_count" }
%"class.std::_Sp_counted_base" = type { ptr, i32, i32 }

@__libc_single_threaded = external global i8, align 1

; Function Attrs: alwaysinline mustprogress nounwind uwtable
define linkonce_odr void @_ZN9__gnu_cxx12__atomic_addEPVii(ptr noundef %0, i32 noundef %1) #16 comdat {
  %3 = alloca ptr, align 8
  %4 = alloca i32, align 4
  %5 = alloca i32, align 4
  %6 = alloca i32, align 4
  store ptr %0, ptr %3, align 8, !tbaa !136
  store i32 %1, ptr %4, align 4, !tbaa !68
  %7 = load ptr, ptr %3, align 8, !tbaa !136
  %8 = load i32, ptr %4, align 4, !tbaa !68
  store i32 %8, ptr %5, align 4, !tbaa !68
  %9 = load i32, ptr %5, align 4
  %10 = atomicrmw volatile add ptr %7, i32 %9 acq_rel, align 4
  store i32 %10, ptr %6, align 4
  ret void
}

; Function Attrs: alwaysinline mustprogress nounwind uwtable
define linkonce_odr void @_ZN9__gnu_cxx19__atomic_add_singleEPii(ptr noundef %0, i32 noundef %1) #16 comdat {
  %3 = alloca ptr, align 8
  %4 = alloca i32, align 4
  store ptr %0, ptr %3, align 8, !tbaa !136
  store i32 %1, ptr %4, align 4, !tbaa !68
  %5 = load i32, ptr %4, align 4, !tbaa !68
  %6 = load ptr, ptr %3, align 8, !tbaa !136
  %7 = load i32, ptr %6, align 4, !tbaa !68
  %8 = add nsw i32 %7, %5
  store i32 %8, ptr %6, align 4, !tbaa !68
  ret void
}

; Function Attrs: alwaysinline mustprogress nounwind uwtable
define linkonce_odr noundef zeroext i1 @_ZN9__gnu_cxx20__is_single_threadedEv() #16 comdat {
  %1 = load i8, ptr @__libc_single_threaded, align 1, !tbaa !138
  %2 = icmp ne i8 %1, 0
  ret i1 %2
}

; Function Attrs: alwaysinline mustprogress uwtable
define linkonce_odr void @_ZN9__gnu_cxx21__atomic_add_dispatchEPii(ptr noundef %0, i32 noundef %1) #13 comdat {
  %3 = alloca ptr, align 8
  %4 = alloca i32, align 4
  store ptr %0, ptr %3, align 8, !tbaa !136
  store i32 %1, ptr %4, align 4, !tbaa !68
  %5 = call noundef zeroext i1 @_ZN9__gnu_cxx20__is_single_threadedEv() #21
  br i1 %5, label %6, label %9

6:                                                ; preds = %2
  %7 = load ptr, ptr %3, align 8, !tbaa !136
  %8 = load i32, ptr %4, align 4, !tbaa !68
  call void @_ZN9__gnu_cxx19__atomic_add_singleEPii(ptr noundef %7, i32 noundef %8)
  br label %12

9:                                                ; preds = %2
  %10 = load ptr, ptr %3, align 8, !tbaa !136
  %11 = load i32, ptr %4, align 4, !tbaa !68
  call void @_ZN9__gnu_cxx12__atomic_addEPVii(ptr noundef %10, i32 noundef %11)
  br label %12

12:                                               ; preds = %9, %6
  ret void
}

; Function Attrs: noinline noreturn nounwind uwtable
define linkonce_odr hidden void @__clang_call_terminate(ptr noundef %0) #9 comdat {
  %2 = call ptr @__cxa_begin_catch(ptr %0) #21
  call void @_ZSt9terminatev() #23
  unreachable
}

; Function Attrs: mustprogress uwtable
define linkonce_odr hidden void @_ZNSt16_Sp_counted_baseILN9__gnu_cxx12_Lock_policyE2EE15_M_add_ref_copyEv(ptr noundef nonnull align 8 dereferenceable(16) %0) #0 comdat align 2 {
  %2 = alloca ptr, align 8
  store ptr %0, ptr %2, align 8, !tbaa !128
  %3 = load ptr, ptr %2, align 8
  %4 = getelementptr inbounds nuw %"class.std::_Sp_counted_base", ptr %3, i32 0, i32 1
  call void @_ZN9__gnu_cxx21__atomic_add_dispatchEPii(ptr noundef %4, i32 noundef 1)
  ret void
}

; Function Attrs: mustprogress nounwind uwtable
define linkonce_odr hidden void @_ZNSt14__shared_countILN9__gnu_cxx12_Lock_policyE2EEC2ERKS2_(ptr noundef nonnull align 8 dereferenceable(8) %0, ptr noundef nonnull align 8 dereferenceable(8) %1) unnamed_addr #3 comdat align 2 personality ptr @__gxx_personality_v0 {
  %3 = alloca ptr, align 8
  %4 = alloca ptr, align 8
  store ptr %0, ptr %3, align 8, !tbaa !125
  store ptr %1, ptr %4, align 8, !tbaa !125
  %5 = load ptr, ptr %3, align 8
  %6 = getelementptr inbounds nuw %"class.std::__shared_count", ptr %5, i32 0, i32 0
  %7 = load ptr, ptr %4, align 8, !tbaa !125
  %8 = getelementptr inbounds nuw %"class.std::__shared_count", ptr %7, i32 0, i32 0
  %9 = load ptr, ptr %8, align 8, !tbaa !127
  store ptr %9, ptr %6, align 8, !tbaa !127
  %10 = getelementptr inbounds nuw %"class.std::__shared_count", ptr %5, i32 0, i32 0
  %11 = load ptr, ptr %10, align 8, !tbaa !127
  %12 = icmp ne ptr %11, null
  br i1 %12, label %13, label %17

13:                                               ; preds = %2
  %14 = getelementptr inbounds nuw %"class.std::__shared_count", ptr %5, i32 0, i32 0
  %15 = load ptr, ptr %14, align 8, !tbaa !127
  invoke void @_ZNSt16_Sp_counted_baseILN9__gnu_cxx12_Lock_policyE2EE15_M_add_ref_copyEv(ptr noundef nonnull align 8 dereferenceable(16) %15)
          to label %16 unwind label %18

16:                                               ; preds = %13
  br label %17

17:                                               ; preds = %16, %2
  ret void

18:                                               ; preds = %13
  %19 = landingpad { ptr, i32 }
          catch ptr null
  %20 = extractvalue { ptr, i32 } %19, 0
  call void @__clang_call_terminate(ptr %20) #23
  unreachable
}

; Function Attrs: mustprogress nounwind uwtable
define linkonce_odr hidden void @_ZNSt12__shared_ptrIKN19OpenColorIO_v2_5dev9TransformELN9__gnu_cxx12_Lock_policyE2EEC2ERKS5_(ptr noundef nonnull align 8 dereferenceable(16) %0, ptr noundef nonnull align 8 dereferenceable(16) %1) unnamed_addr #3 comdat align 2 {
  %3 = alloca ptr, align 8
  %4 = alloca ptr, align 8
  store ptr %0, ptr %3, align 8, !tbaa !93
  store ptr %1, ptr %4, align 8, !tbaa !93
  %5 = load ptr, ptr %3, align 8
  %6 = getelementptr inbounds nuw %"class.std::__shared_ptr.18", ptr %5, i32 0, i32 0
  %7 = load ptr, ptr %4, align 8, !tbaa !93
  %8 = getelementptr inbounds nuw %"class.std::__shared_ptr.18", ptr %7, i32 0, i32 0
  %9 = load ptr, ptr %8, align 8, !tbaa !145
  store ptr %9, ptr %6, align 8, !tbaa !145
  %10 = getelementptr inbounds nuw %"class.std::__shared_ptr.18", ptr %5, i32 0, i32 1
  %11 = load ptr, ptr %4, align 8, !tbaa !93
  %12 = getelementptr inbounds nuw %"class.std::__shared_ptr.18", ptr %11, i32 0, i32 1
  call void @_ZNSt14__shared_countILN9__gnu_cxx12_Lock_policyE2EEC2ERKS2_(ptr noundef nonnull align 8 dereferenceable(8) %10, ptr noundef nonnull align 8 dereferenceable(8) %12) #21
  ret void
}

; Function Attrs: mustprogress nounwind uwtable
define linkonce_odr hidden void @_ZNSt10shared_ptrIKN19OpenColorIO_v2_5dev9TransformEEC2ERKS3_(ptr noundef nonnull align 8 dereferenceable(16) %0, ptr noundef nonnull align 8 dereferenceable(16) %1) unnamed_addr #3 comdat align 2 {
  %3 = alloca ptr, align 8
  %4 = alloca ptr, align 8
  store ptr %0, ptr %3, align 8, !tbaa !74
  store ptr %1, ptr %4, align 8, !tbaa !74
  %5 = load ptr, ptr %3, align 8
  %6 = load ptr, ptr %4, align 8, !tbaa !74
  call void @_ZNSt12__shared_ptrIKN19OpenColorIO_v2_5dev9TransformELN9__gnu_cxx12_Lock_policyE2EEC2ERKS5_(ptr noundef nonnull align 8 dereferenceable(16) %5, ptr noundef nonnull align 8 dereferenceable(16) %6) #21
  ret void
}

; Function Attrs: mustprogress uwtable
define hidden noundef zeroext i1 @_ZN19OpenColorIO_v2_5dev23CollectContextVariablesERKNS_6ConfigERKNS_7ContextERKNS_14GroupTransformERSt10shared_ptrIS3_E(ptr noundef nonnull align 8 dereferenceable(8) %0, ptr noundef nonnull align 8 dereferenceable(8) %1, ptr noundef nonnull align 8 dereferenceable(8) %2, ptr noundef nonnull align 8 dereferenceable(16) %3) #0 personality ptr @__gxx_personality_v0 {
  %5 = alloca ptr, align 8
  %6 = alloca ptr, align 8
  %7 = alloca ptr, align 8
  %8 = alloca ptr, align 8
  %9 = alloca i8, align 1
  %10 = alloca i32, align 4
  %11 = alloca %"class.std::shared_ptr.17", align 8
  %12 = alloca %"class.std::shared_ptr.17", align 8
  %13 = alloca ptr, align 8
  %14 = alloca i32, align 4
  store ptr %0, ptr %5, align 8, !tbaa !97
  store ptr %1, ptr %6, align 8, !tbaa !104
  store ptr %2, ptr %7, align 8, !tbaa !3
  store ptr %3, ptr %8, align 8, !tbaa !106
  call void @llvm.lifetime.start.p0(i64 1, ptr %9) #21
  store i8 0, ptr %9, align 1, !tbaa !108
  call void @llvm.lifetime.start.p0(i64 4, ptr %10) #21
  store i32 0, ptr %10, align 4, !tbaa !68
  br label %15

15:                                               ; preds = %41, %4
  %16 = load i32, ptr %10, align 4, !tbaa !68
  %17 = load ptr, ptr %7, align 8, !tbaa !3
  %18 = load ptr, ptr %17, align 8, !tbaa !8
  %19 = getelementptr inbounds ptr, ptr %18, i64 11
  %20 = load ptr, ptr %19, align 8
  %21 = call noundef i32 %20(ptr noundef nonnull align 8 dereferenceable(8) %17) #21
  %22 = icmp slt i32 %16, %21
  br i1 %22, label %24, label %23

23:                                               ; preds = %15
  call void @llvm.lifetime.end.p0(i64 4, ptr %10) #21
  br label %44

24:                                               ; preds = %15
  call void @llvm.lifetime.start.p0(i64 16, ptr %11) #21
  %25 = load ptr, ptr %7, align 8, !tbaa !3
  %26 = load i32, ptr %10, align 4, !tbaa !68
  %27 = load ptr, ptr %25, align 8, !tbaa !8
  %28 = getelementptr inbounds ptr, ptr %27, i64 9
  %29 = load ptr, ptr %28, align 8
  call void %29(ptr dead_on_unwind writable sret(%"class.std::shared_ptr.17") align 8 %11, ptr noundef nonnull align 8 dereferenceable(8) %25, i32 noundef %26)
  %30 = load ptr, ptr %5, align 8, !tbaa !97
  %31 = load ptr, ptr %6, align 8, !tbaa !104
  call void @_ZNSt10shared_ptrIKN19OpenColorIO_v2_5dev9TransformEEC2ERKS3_(ptr noundef nonnull align 8 dereferenceable(16) %12, ptr noundef nonnull align 8 dereferenceable(16) %11) #21
  %32 = load ptr, ptr %8, align 8, !tbaa !106
  %33 = invoke noundef zeroext i1 @_ZN19OpenColorIO_v2_5dev23CollectContextVariablesERKNS_6ConfigERKNS_7ContextESt10shared_ptrIKNS_9TransformEERS6_IS3_E(ptr noundef nonnull align 8 dereferenceable(8) %30, ptr noundef nonnull align 8 dereferenceable(8) %31, ptr noundef %12, ptr noundef nonnull align 8 dereferenceable(16) %32)
          to label %34 unwind label %36

34:                                               ; preds = %24
  call void @_ZNSt12__shared_ptrIKN19OpenColorIO_v2_5dev9TransformELN9__gnu_cxx12_Lock_policyE2EED2Ev(ptr noundef nonnull align 8 dereferenceable(16) %12) #21
  br i1 %33, label %35, label %40

35:                                               ; preds = %34
  store i8 1, ptr %9, align 1, !tbaa !108
  br label %40

36:                                               ; preds = %24
  %37 = landingpad { ptr, i32 }
          cleanup
  %38 = extractvalue { ptr, i32 } %37, 0
  store ptr %38, ptr %13, align 8
  %39 = extractvalue { ptr, i32 } %37, 1
  store i32 %39, ptr %14, align 4
  call void @_ZNSt12__shared_ptrIKN19OpenColorIO_v2_5dev9TransformELN9__gnu_cxx12_Lock_policyE2EED2Ev(ptr noundef nonnull align 8 dereferenceable(16) %12) #21
  call void @_ZNSt12__shared_ptrIKN19OpenColorIO_v2_5dev9TransformELN9__gnu_cxx12_Lock_policyE2EED2Ev(ptr noundef nonnull align 8 dereferenceable(16) %11) #21
  call void @llvm.lifetime.end.p0(i64 16, ptr %11) #21
  call void @llvm.lifetime.end.p0(i64 4, ptr %10) #21
  call void @llvm.lifetime.end.p0(i64 1, ptr %9) #21
  br label %47

40:                                               ; preds = %35, %34
  call void @_ZNSt12__shared_ptrIKN19OpenColorIO_v2_5dev9TransformELN9__gnu_cxx12_Lock_policyE2EED2Ev(ptr noundef nonnull align 8 dereferenceable(16) %11) #21
  call void @llvm.lifetime.end.p0(i64 16, ptr %11) #21
  br label %41

41:                                               ; preds = %40
  %42 = load i32, ptr %10, align 4, !tbaa !68
  %43 = add nsw i32 %42, 1
  store i32 %43, ptr %10, align 4, !tbaa !68
  br label %15, !llvm.loop !110

44:                                               ; preds = %23
  %45 = load i8, ptr %9, align 1, !tbaa !108, !range !111, !noundef !112
  %46 = trunc i8 %45 to i1
  call void @llvm.lifetime.end.p0(i64 1, ptr %9) #21
  ret i1 %46

47:                                               ; preds = %36
  %48 = load ptr, ptr %13, align 8
  %49 = load i32, ptr %14, align 4
  %50 = insertvalue { ptr, i32 } poison, ptr %48, 0
  %51 = insertvalue { ptr, i32 } %50, i32 %49, 1
  resume { ptr, i32 } %51
}