; Function Attrs: mustprogress uwtable
define hidden noundef zeroext i1 @_ZN19OpenColorIO_v2_5dev23CollectContextVariablesERKNS_6ConfigERKNS_7ContextERKNS_14GroupTransformERSt10shared_ptrIS3_E(ptr noundef nonnull align 8 dereferenceable(8) %0, ptr noundef nonnull align 8 dereferenceable(8) %1, ptr noundef nonnull align 8 dereferenceable(8) %2, ptr noundef nonnull align 8 dereferenceable(16) %3) local_unnamed_addr #0 personality ptr @__gxx_personality_v0 {
  %5 = alloca %"class.std::shared_ptr.17", align 8
  %6 = alloca %"class.std::shared_ptr.17", align 8
  %7 = load ptr, ptr %2, align 8, !tbaa !3
  %8 = getelementptr inbounds nuw i8, ptr %7, i64 88
  %9 = load ptr, ptr %8, align 8
  %10 = tail call noundef i32 %9(ptr noundef nonnull align 8 dereferenceable(8) %2) #24
  %11 = icmp sgt i32 %10, 0
  br i1 %11, label %.lr.ph, label %._crit_edge

.lr.ph:                                           ; preds = %4
  %12 = getelementptr inbounds nuw i8, ptr %6, i64 8
  %13 = getelementptr inbounds nuw i8, ptr %5, i64 8
  br label %14

._crit_edge:                                      ; preds = %_ZNSt12__shared_ptrIKN19OpenColorIO_v2_5dev9TransformELN9__gnu_cxx12_Lock_policyE2EED2Ev.exit16, %4
  %.0.lcssa = phi i1 [ false, %4 ], [ %spec.select, %_ZNSt12__shared_ptrIKN19OpenColorIO_v2_5dev9TransformELN9__gnu_cxx12_Lock_policyE2EED2Ev.exit16 ]
  ret i1 %.0.lcssa

14:                                               ; preds = %.lr.ph, %_ZNSt12__shared_ptrIKN19OpenColorIO_v2_5dev9TransformELN9__gnu_cxx12_Lock_policyE2EED2Ev.exit16
  %.019 = phi i1 [ false, %.lr.ph ], [ %spec.select, %_ZNSt12__shared_ptrIKN19OpenColorIO_v2_5dev9TransformELN9__gnu_cxx12_Lock_policyE2EED2Ev.exit16 ]
  %.01018 = phi i32 [ 0, %.lr.ph ], [ %74, %_ZNSt12__shared_ptrIKN19OpenColorIO_v2_5dev9TransformELN9__gnu_cxx12_Lock_policyE2EED2Ev.exit16 ]
  call void @llvm.lifetime.start.p0(i64 16, ptr nonnull %5) #24
  %15 = load ptr, ptr %2, align 8, !tbaa !3
  %16 = getelementptr inbounds nuw i8, ptr %15, i64 72
  %17 = load ptr, ptr %16, align 8
  call void %17(ptr dead_on_unwind nonnull writable sret(%"class.std::shared_ptr.17") align 8 %5, ptr noundef nonnull align 8 dereferenceable(8) %2, i32 noundef %.01018)
  %18 = load ptr, ptr %5, align 8, !tbaa !68
  store ptr %18, ptr %6, align 8, !tbaa !68
  %19 = load ptr, ptr %13, align 8, !tbaa !39
  store ptr %19, ptr %12, align 8, !tbaa !39
  %.not.i.i.i = icmp eq ptr %19, null
  br i1 %.not.i.i.i, label %_ZNSt10shared_ptrIKN19OpenColorIO_v2_5dev9TransformEEC2ERKS3_.exit, label %20

20:                                               ; preds = %14
  %21 = getelementptr inbounds nuw i8, ptr %19, i64 8
  %22 = load i8, ptr @__libc_single_threaded, align 1, !tbaa !56
  %.not.i.i.i.i = icmp eq i8 %22, 0
  br i1 %.not.i.i.i.i, label %26, label %23

23:                                               ; preds = %20
  %24 = load i32, ptr %21, align 4, !tbaa !57
  %25 = add nsw i32 %24, 1
  store i32 %25, ptr %21, align 4, !tbaa !57
  br label %_ZNSt10shared_ptrIKN19OpenColorIO_v2_5dev9TransformEEC2ERKS3_.exit

26:                                               ; preds = %20
  %27 = atomicrmw volatile add ptr %21, i32 1 acq_rel, align 4
  br label %_ZNSt10shared_ptrIKN19OpenColorIO_v2_5dev9TransformEEC2ERKS3_.exit

_ZNSt10shared_ptrIKN19OpenColorIO_v2_5dev9TransformEEC2ERKS3_.exit: ; preds = %14, %23, %26
  %28 = invoke noundef zeroext i1 @_ZN19OpenColorIO_v2_5dev23CollectContextVariablesERKNS_6ConfigERKNS_7ContextESt10shared_ptrIKNS_9TransformEERS6_IS3_E(ptr noundef nonnull align 8 dereferenceable(8) %0, ptr noundef nonnull align 8 dereferenceable(8) %1, ptr noundef nonnull %6, ptr noundef nonnull align 8 dereferenceable(16) %3)
          to label %29 unwind label %80

29:                                               ; preds = %_ZNSt10shared_ptrIKN19OpenColorIO_v2_5dev9TransformEEC2ERKS3_.exit
  %30 = load ptr, ptr %12, align 8, !tbaa !39
  %.not.i.i = icmp eq ptr %30, null
  br i1 %.not.i.i, label %_ZNSt12__shared_ptrIKN19OpenColorIO_v2_5dev9TransformELN9__gnu_cxx12_Lock_policyE2EED2Ev.exit, label %31

31:                                               ; preds = %29
  %32 = getelementptr inbounds nuw i8, ptr %30, i64 8
  %33 = load atomic i64, ptr %32 acquire, align 8
  %34 = icmp eq i64 %33, 4294967297
  %35 = trunc i64 %33 to i32
  br i1 %34, label %36, label %44

36:                                               ; preds = %31
  store i32 0, ptr %32, align 8, !tbaa !40
  %37 = getelementptr inbounds nuw i8, ptr %30, i64 12
  store i32 0, ptr %37, align 4, !tbaa !43
  %38 = load ptr, ptr %30, align 8, !tbaa !3
  %39 = getelementptr inbounds nuw i8, ptr %38, i64 16
  %40 = load ptr, ptr %39, align 8
  call void %40(ptr noundef nonnull align 8 dereferenceable(16) %30) #24
  %41 = load ptr, ptr %30, align 8, !tbaa !3
  %42 = getelementptr inbounds nuw i8, ptr %41, i64 24
  %43 = load ptr, ptr %42, align 8
  call void %43(ptr noundef nonnull align 8 dereferenceable(16) %30) #24
  br label %_ZNSt12__shared_ptrIKN19OpenColorIO_v2_5dev9TransformELN9__gnu_cxx12_Lock_policyE2EED2Ev.exit

44:                                               ; preds = %31
  %45 = load i8, ptr @__libc_single_threaded, align 1, !tbaa !56
  %.not.i.i.i11 = icmp eq i8 %45, 0
  br i1 %.not.i.i.i11, label %48, label %46

46:                                               ; preds = %44
  %47 = add nsw i32 %35, -1
  store i32 %47, ptr %32, align 4, !tbaa !57
  br label %_ZN9__gnu_cxx27__exchange_and_add_dispatchEPii.exit.i.i.i

48:                                               ; preds = %44
  %49 = atomicrmw volatile add ptr %32, i32 -1 acq_rel, align 4
  br label %_ZN9__gnu_cxx27__exchange_and_add_dispatchEPii.exit.i.i.i

_ZN9__gnu_cxx27__exchange_and_add_dispatchEPii.exit.i.i.i: ; preds = %48, %46
  %.0.i.i.i.i = phi i32 [ %35, %46 ], [ %49, %48 ]
  %50 = icmp eq i32 %.0.i.i.i.i, 1
  br i1 %50, label %51, label %_ZNSt12__shared_ptrIKN19OpenColorIO_v2_5dev9TransformELN9__gnu_cxx12_Lock_policyE2EED2Ev.exit, !prof !55

51:                                               ; preds = %_ZN9__gnu_cxx27__exchange_and_add_dispatchEPii.exit.i.i.i
  call void @_ZNSt16_Sp_counted_baseILN9__gnu_cxx12_Lock_policyE2EE24_M_release_last_use_coldEv(ptr noundef nonnull align 8 dereferenceable(16) %30) #24
  br label %_ZNSt12__shared_ptrIKN19OpenColorIO_v2_5dev9TransformELN9__gnu_cxx12_Lock_policyE2EED2Ev.exit

_ZNSt12__shared_ptrIKN19OpenColorIO_v2_5dev9TransformELN9__gnu_cxx12_Lock_policyE2EED2Ev.exit: ; preds = %29, %36, %_ZN9__gnu_cxx27__exchange_and_add_dispatchEPii.exit.i.i.i, %51
  %spec.select = select i1 %28, i1 true, i1 %.019
  %52 = load ptr, ptr %13, align 8, !tbaa !39
  %.not.i.i12 = icmp eq ptr %52, null
  br i1 %.not.i.i12, label %_ZNSt12__shared_ptrIKN19OpenColorIO_v2_5dev9TransformELN9__gnu_cxx12_Lock_policyE2EED2Ev.exit16, label %53

53:                                               ; preds = %_ZNSt12__shared_ptrIKN19OpenColorIO_v2_5dev9TransformELN9__gnu_cxx12_Lock_policyE2EED2Ev.exit
  %54 = getelementptr inbounds nuw i8, ptr %52, i64 8
  %55 = load atomic i64, ptr %54 acquire, align 8
  %56 = icmp eq i64 %55, 4294967297
  %57 = trunc i64 %55 to i32
  br i1 %56, label %58, label %66

58:                                               ; preds = %53
  store i32 0, ptr %54, align 8, !tbaa !40
  %59 = getelementptr inbounds nuw i8, ptr %52, i64 12
  store i32 0, ptr %59, align 4, !tbaa !43
  %60 = load ptr, ptr %52, align 8, !tbaa !3
  %61 = getelementptr inbounds nuw i8, ptr %60, i64 16
  %62 = load ptr, ptr %61, align 8
  call void %62(ptr noundef nonnull align 8 dereferenceable(16) %52) #24
  %63 = load ptr, ptr %52, align 8, !tbaa !3
  %64 = getelementptr inbounds nuw i8, ptr %63, i64 24
  %65 = load ptr, ptr %64, align 8
  call void %65(ptr noundef nonnull align 8 dereferenceable(16) %52) #24
  br label %_ZNSt12__shared_ptrIKN19OpenColorIO_v2_5dev9TransformELN9__gnu_cxx12_Lock_policyE2EED2Ev.exit16

66:                                               ; preds = %53
  %67 = load i8, ptr @__libc_single_threaded, align 1, !tbaa !56
  %.not.i.i.i13 = icmp eq i8 %67, 0
  br i1 %.not.i.i.i13, label %70, label %68

68:                                               ; preds = %66
  %69 = add nsw i32 %57, -1
  store i32 %69, ptr %54, align 4, !tbaa !57
  br label %_ZN9__gnu_cxx27__exchange_and_add_dispatchEPii.exit.i.i.i14

70:                                               ; preds = %66
  %71 = atomicrmw volatile add ptr %54, i32 -1 acq_rel, align 4
  br label %_ZN9__gnu_cxx27__exchange_and_add_dispatchEPii.exit.i.i.i14

_ZN9__gnu_cxx27__exchange_and_add_dispatchEPii.exit.i.i.i14: ; preds = %70, %68
  %.0.i.i.i.i15 = phi i32 [ %57, %68 ], [ %71, %70 ]
  %72 = icmp eq i32 %.0.i.i.i.i15, 1
  br i1 %72, label %73, label %_ZNSt12__shared_ptrIKN19OpenColorIO_v2_5dev9TransformELN9__gnu_cxx12_Lock_policyE2EED2Ev.exit16, !prof !55

73:                                               ; preds = %_ZN9__gnu_cxx27__exchange_and_add_dispatchEPii.exit.i.i.i14
  call void @_ZNSt16_Sp_counted_baseILN9__gnu_cxx12_Lock_policyE2EE24_M_release_last_use_coldEv(ptr noundef nonnull align 8 dereferenceable(16) %52) #24
  br label %_ZNSt12__shared_ptrIKN19OpenColorIO_v2_5dev9TransformELN9__gnu_cxx12_Lock_policyE2EED2Ev.exit16

_ZNSt12__shared_ptrIKN19OpenColorIO_v2_5dev9TransformELN9__gnu_cxx12_Lock_policyE2EED2Ev.exit16: ; preds = %_ZNSt12__shared_ptrIKN19OpenColorIO_v2_5dev9TransformELN9__gnu_cxx12_Lock_policyE2EED2Ev.exit, %58, %_ZN9__gnu_cxx27__exchange_and_add_dispatchEPii.exit.i.i.i14, %73
  call void @llvm.lifetime.end.p0(i64 16, ptr nonnull %5) #24
  %74 = add nuw nsw i32 %.01018, 1
  %75 = load ptr, ptr %2, align 8, !tbaa !3
  %76 = getelementptr inbounds nuw i8, ptr %75, i64 88
  %77 = load ptr, ptr %76, align 8
  %78 = call noundef i32 %77(ptr noundef nonnull align 8 dereferenceable(8) %2) #24
  %79 = icmp slt i32 %74, %78
  br i1 %79, label %14, label %._crit_edge, !llvm.loop !94

80:                                               ; preds = %_ZNSt10shared_ptrIKN19OpenColorIO_v2_5dev9TransformEEC2ERKS3_.exit
  %81 = landingpad { ptr, i32 }
          cleanup
  call void @_ZNSt12__shared_ptrIKN19OpenColorIO_v2_5dev9TransformELN9__gnu_cxx12_Lock_policyE2EED2Ev(ptr noundef nonnull align 8 dereferenceable(16) %6) #24
  call void @_ZNSt12__shared_ptrIKN19OpenColorIO_v2_5dev9TransformELN9__gnu_cxx12_Lock_policyE2EED2Ev(ptr noundef nonnull align 8 dereferenceable(16) %5) #24
  call void @llvm.lifetime.end.p0(i64 16, ptr nonnull %5) #24
  resume { ptr, i32 } %81
}